target datalayout = "e-m:e-p270:32:32-p271:32:32-p272:64:64-i64:64-i128:128-f80:128-n8:16:32:64-S128"
target triple = "x86_64-pc-linux-gnu"

%"struct.cv::dnn::dnn4_v20240521::Net::Impl" = type { ptr, %"struct.cv::dnn::dnn4_v20240521::detail::NetImplBase", %"struct.cv::Ptr", %"struct.cv::Ptr.0", %"class.std::vector", %"class.std::map", %"class.std::map.7", %"class.std::map.7", %"struct.cv::dnn::dnn4_v20240521::detail::BlobManager", i32, i32, %"class.std::__cxx11::basic_string", i8, %"class.std::map.36", i32, i8, i8, i8, i8, i8, %"class.std::vector.44" }
%"struct.cv::dnn::dnn4_v20240521::detail::NetImplBase" = type { i32, i32, i32 }
%"struct.cv::Ptr" = type { %"class.std::shared_ptr" }
%"class.std::shared_ptr" = type { %"class.std::__shared_ptr" }
%"class.std::__shared_ptr" = type { ptr, %"class.std::__shared_count" }
%"class.std::__shared_count" = type { ptr }
%"struct.cv::Ptr.0" = type { %"class.std::shared_ptr.1" }
%"class.std::shared_ptr.1" = type { %"class.std::__shared_ptr.2" }
%"class.std::__shared_ptr.2" = type { ptr, %"class.std::__shared_count" }
%"class.std::vector" = type { %"struct.std::_Vector_base" }
%"struct.std::_Vector_base" = type { %"struct.std::_Vector_base<cv::dnn::dnn4_v20240521::detail::LayerPin, std::allocator<cv::dnn::dnn4_v20240521::detail::LayerPin>>::_Vector_impl" }
%"struct.std::_Vector_base<cv::dnn::dnn4_v20240521::detail::LayerPin, std::allocator<cv::dnn::dnn4_v20240521::detail::LayerPin>>::_Vector_impl" = type { %"struct.std::_Vector_base<cv::dnn::dnn4_v20240521::detail::LayerPin, std::allocator<cv::dnn::dnn4_v20240521::detail::LayerPin>>::_Vector_impl_data" }
%"struct.std::_Vector_base<cv::dnn::dnn4_v20240521::detail::LayerPin, std::allocator<cv::dnn::dnn4_v20240521::detail::LayerPin>>::_Vector_impl_data" = type { ptr, ptr, ptr }
%"class.std::map" = type { %"class.std::_Rb_tree" }
%"class.std::_Rb_tree" = type { %"struct.std::_Rb_tree<int, std::pair<const int, cv::dnn::dnn4_v20240521::detail::LayerData>, std::_Select1st<std::pair<const int, cv::dnn::dnn4_v20240521::detail::LayerData>>, std::less<int>>::_Rb_tree_impl" }
%"struct.std::_Rb_tree<int, std::pair<const int, cv::dnn::dnn4_v20240521::detail::LayerData>, std::_Select1st<std::pair<const int, cv::dnn::dnn4_v20240521::detail::LayerData>>, std::less<int>>::_Rb_tree_impl" = type { %"struct.std::_Rb_tree_key_compare", %"struct.std::_Rb_tree_header" }
%"struct.std::_Rb_tree_key_compare" = type { %"struct.std::less" }
%"struct.std::less" = type { i8 }
%"struct.std::_Rb_tree_header" = type { %"struct.std::_Rb_tree_node_base", i64 }
%"struct.std::_Rb_tree_node_base" = type { i32, ptr, ptr, ptr }
%"class.std::map.7" = type { %"class.std::_Rb_tree.8" }
%"class.std::_Rb_tree.8" = type { %"struct.std::_Rb_tree<std::__cxx11::basic_string<char>, std::pair<const std::__cxx11::basic_string<char>, int>, std::_Select1st<std::pair<const std::__cxx11::basic_string<char>, int>>, std::less<std::__cxx11::basic_string<char>>>::_Rb_tree_impl" }
%"struct.std::_Rb_tree<std::__cxx11::basic_string<char>, std::pair<const std::__cxx11::basic_string<char>, int>, std::_Select1st<std::pair<const std::__cxx11::basic_string<char>, int>>, std::less<std::__cxx11::basic_string<char>>>::_Rb_tree_impl" = type { %"struct.std::_Rb_tree_key_compare.12", %"struct.std::_Rb_tree_header" }
%"struct.std::_Rb_tree_key_compare.12" = type { %"struct.std::less.13" }
%"struct.std::less.13" = type { i8 }
%"struct.cv::dnn::dnn4_v20240521::detail::BlobManager" = type { %"class.std::map.15", %"class.std::map.23", %"class.std::map.28" }
%"class.std::map.15" = type { %"class.std::_Rb_tree.16" }
%"class.std::_Rb_tree.16" = type { %"struct.std::_Rb_tree<cv::dnn::dnn4_v20240521::detail::LayerPin, std::pair<const cv::dnn::dnn4_v20240521::detail::LayerPin, int>, std::_Select1st<std::pair<const cv::dnn::dnn4_v20240521::detail::LayerPin, int>>, std::less<cv::dnn::dnn4_v20240521::detail::LayerPin>>::_Rb_tree_impl" }
%"struct.std::_Rb_tree<cv::dnn::dnn4_v20240521::detail::LayerPin, std::pair<const cv::dnn::dnn4_v20240521::detail::LayerPin, int>, std::_Select1st<std::pair<const cv::dnn::dnn4_v20240521::detail::LayerPin, int>>, std::less<cv::dnn::dnn4_v20240521::detail::LayerPin>>::_Rb_tree_impl" = type { %"struct.std::_Rb_tree_key_compare.20", %"struct.std::_Rb_tree_header" }
%"struct.std::_Rb_tree_key_compare.20" = type { %"struct.std::less.21" }
%"struct.std::less.21" = type { i8 }
%"class.std::map.23" = type { %"class.std::_Rb_tree.24" }
%"class.std::_Rb_tree.24" = type { %"struct.std::_Rb_tree<cv::dnn::dnn4_v20240521::detail::LayerPin, std::pair<const cv::dnn::dnn4_v20240521::detail::LayerPin, cv::dnn::dnn4_v20240521::detail::LayerPin>, std::_Select1st<std::pair<const cv::dnn::dnn4_v20240521::detail::LayerPin, cv::dnn::dnn4_v20240521::detail::LayerPin>>, std::less<cv::dnn::dnn4_v20240521::detail::LayerPin>>::_Rb_tree_impl" }
%"struct.std::_Rb_tree<cv::dnn::dnn4_v20240521::detail::LayerPin, std::pair<const cv::dnn::dnn4_v20240521::detail::LayerPin, cv::dnn::dnn4_v20240521::detail::LayerPin>, std::_Select1st<std::pair<const cv::dnn::dnn4_v20240521::detail::LayerPin, cv::dnn::dnn4_v20240521::detail::LayerPin>>, std::less<cv::dnn::dnn4_v20240521::detail::LayerPin>>::_Rb_tree_impl" = type { %"struct.std::_Rb_tree_key_compare.20", %"struct.std::_Rb_tree_header" }
%"class.std::map.28" = type { %"class.std::_Rb_tree.29" }
%"class.std::_Rb_tree.29" = type { %"struct.std::_Rb_tree<cv::dnn::dnn4_v20240521::detail::LayerPin, std::pair<const cv::dnn::dnn4_v20240521::detail::LayerPin, cv::Mat>, std::_Select1st<std::pair<const cv::dnn::dnn4_v20240521::detail::LayerPin, cv::Mat>>, std::less<cv::dnn::dnn4_v20240521::detail::LayerPin>>::_Rb_tree_impl" }
%"struct.std::_Rb_tree<cv::dnn::dnn4_v20240521::detail::LayerPin, std::pair<const cv::dnn::dnn4_v20240521::detail::LayerPin, cv::Mat>, std::_Select1st<std::pair<const cv::dnn::dnn4_v20240521::detail::LayerPin, cv::Mat>>, std::less<cv::dnn::dnn4_v20240521::detail::LayerPin>>::_Rb_tree_impl" = type { %"struct.std::_Rb_tree_key_compare.20", %"struct.std::_Rb_tree_header" }
%"class.std::__cxx11::basic_string" = type { %"struct.std::__cxx11::basic_string<char>::_Alloc_hider", i64, %union.anon }
%"struct.std::__cxx11::basic_string<char>::_Alloc_hider" = type { ptr }
%union.anon = type { i64, [8 x i8] }
%"class.std::map.36" = type { %"class.std::_Rb_tree.37" }
%"class.std::_Rb_tree.37" = type { %"struct.std::_Rb_tree<void *, std::pair<void *const, cv::Ptr<cv::dnn::dnn4_v20240521::BackendWrapper>>, std::_Select1st<std::pair<void *const, cv::Ptr<cv::dnn::dnn4_v20240521::BackendWrapper>>>, std::less<void *>>::_Rb_tree_impl" }
%"struct.std::_Rb_tree<void *, std::pair<void *const, cv::Ptr<cv::dnn::dnn4_v20240521::BackendWrapper>>, std::_Select1st<std::pair<void *const, cv::Ptr<cv::dnn::dnn4_v20240521::BackendWrapper>>>, std::less<void *>>::_Rb_tree_impl" = type { %"struct.std::_Rb_tree_key_compare.41", %"struct.std::_Rb_tree_header" }
%"struct.std::_Rb_tree_key_compare.41" = type { %"struct.std::less.42" }
%"struct.std::less.42" = type { i8 }
%"class.std::vector.44" = type { %"struct.std::_Vector_base.45" }
%"struct.std::_Vector_base.45" = type { %"struct.std::_Vector_base<long, std::allocator<long>>::_Vector_impl" }
%"struct.std::_Vector_base<long, std::allocator<long>>::_Vector_impl" = type { %"struct.std::_Vector_base<long, std::allocator<long>>::_Vector_impl_data" }
%"struct.std::_Vector_base<long, std::allocator<long>>::_Vector_impl_data" = type { ptr, ptr, ptr }

; Function Attrs: mustprogress uwtable
define void @_ZN2cv3dnn14dnn4_v202405213Net4Impl12enableFusionEb(ptr noundef nonnull align 8 dereferenceable(504) %0, i1 noundef zeroext %1) #4 align 2 {
  %3 = alloca ptr, align 8
  %4 = alloca i8, align 1
  store ptr %0, ptr %3, align 8
  %5 = zext i1 %1 to i8
  store i8 %5, ptr %4, align 1
  %6 = load ptr, ptr %3, align 8
  %7 = getelementptr inbounds %"struct.cv::dnn::dnn4_v20240521::Net::Impl", ptr %6, i32 0, i32 17
  %8 = load i8, ptr %7, align 2
  %9 = trunc i8 %8 to i1
  %10 = zext i1 %9 to i32
  %11 = load i8, ptr %4, align 1
  %12 = trunc i8 %11 to i1
  %13 = zext i1 %12 to i32
  %14 = icmp ne i32 %10, %13
  br i1 %14, label %15, label %23

15:                                               ; preds = %2
  %16 = load i8, ptr %4, align 1
  %17 = trunc i8 %16 to i1
  %18 = getelementptr inbounds %"struct.cv::dnn::dnn4_v20240521::Net::Impl", ptr %6, i32 0, i32 17
  %19 = zext i1 %17 to i8
  store i8 %19, ptr %18, align 2
  %20 = load ptr, ptr %6, align 8
  %21 = getelementptr inbounds ptr, ptr %20, i64 6
  %22 = load ptr, ptr %21, align 8
  call void %22(ptr noundef nonnull align 8 dereferenceable(504) %6)
  br label %23

23:                                               ; preds = %15, %2
  ret void
}