; Function Attrs: mustprogress uwtable
define void @_ZN2cv3dnn14dnn4_v202405213Net4Impl12enableFusionEb(ptr noundef nonnull align 8 dereferenceable(504) %0, i1 noundef zeroext %1) local_unnamed_addr #3 align 2 {
  %3 = getelementptr inbounds i8, ptr %0, i64 470
  %4 = load i8, ptr %3, align 2
  %5 = trunc i8 %4 to i1
  %6 = xor i1 %5, %1
  br i1 %6, label %7, label %12

7:                                                ; preds = %2
  %8 = zext i1 %1 to i8
  store i8 %8, ptr %3, align 2
  %9 = load ptr, ptr %0, align 8
  %10 = getelementptr inbounds i8, ptr %9, i64 48
  %11 = load ptr, ptr %10, align 8
  tail call void %11(ptr noundef nonnull align 8 dereferenceable(504) %0)
  br label %12

12:                                               ; preds = %7, %2
  ret void
}